; Function Attrs: mustprogress uwtable
define dso_local void @_ZN23btDiscreteDynamicsWorld18saveKinematicStateEf(ptr nocapture noundef nonnull readonly align 8 dereferenceable(508) %this, float noundef %timeStep) unnamed_addr #0 align 2 {
entry:
  %m_size.i = getelementptr inbounds i8, ptr %this, i64 12
  %0 = load i32, ptr %m_size.i, align 4
  %cmp8 = icmp sgt i32 %0, 0
  br i1 %cmp8, label %for.body.lr.ph, label %for.end

for.body.lr.ph:                                   ; preds = %entry
  %m_data.i = getelementptr inbounds i8, ptr %this, i64 24
  br label %for.body

for.body:                                         ; preds = %for.body.lr.ph, %for.inc
  %1 = phi i32 [ %0, %for.body.lr.ph ], [ %7, %for.inc ]
  %indvars.iv = phi i64 [ 0, %for.body.lr.ph ], [ %indvars.iv.next, %for.inc ]
  %2 = load ptr, ptr %m_data.i, align 8
  %arrayidx.i = getelementptr inbounds ptr, ptr %2, i64 %indvars.iv
  %3 = load ptr, ptr %arrayidx.i, align 8
  %m_internalType.i.i = getelementptr inbounds i8, ptr %3, i64 272
  %4 = load i32, ptr %m_internalType.i.i, align 8
  %and.i = and i32 %4, 2
  %tobool.not.i = icmp eq i32 %and.i, 0
  %tobool.not7 = icmp eq ptr %3, null
  %tobool.not = or i1 %tobool.not7, %tobool.not.i
  br i1 %tobool.not, label %for.inc, label %land.lhs.true

land.lhs.true:                                    ; preds = %for.body
  %m_activationState1.i = getelementptr inbounds i8, ptr %3, i64 240
  %5 = load i32, ptr %m_activationState1.i, align 8
  %cmp6.not = icmp eq i32 %5, 2
  br i1 %cmp6.not, label %for.inc, label %if.then

if.then:                                          ; preds = %land.lhs.true
  %m_collisionFlags.i = getelementptr inbounds i8, ptr %3, i64 224
  %6 = load i32, ptr %m_collisionFlags.i, align 8
  %and.i6 = and i32 %6, 2
  %cmp.i.not = icmp eq i32 %and.i6, 0
  br i1 %cmp.i.not, label %for.inc, label %if.then8

if.then8:                                         ; preds = %if.then
  tail call void @_ZN11btRigidBody18saveKinematicStateEf(ptr noundef nonnull align 8 dereferenceable(744) %3, float noundef %timeStep)
  %.pre = load i32, ptr %m_size.i, align 4
  br label %for.inc

for.inc:                                          ; preds = %for.body, %land.lhs.true, %if.then8, %if.then
  %7 = phi i32 [ %1, %for.body ], [ %1, %land.lhs.true ], [ %.pre, %if.then8 ], [ %1, %if.then ]
  %indvars.iv.next = add nuw nsw i64 %indvars.iv, 1
  %8 = sext i32 %7 to i64
  %cmp = icmp slt i64 %indvars.iv.next, %8
  br i1 %cmp, label %for.body, label %for.end, !llvm.loop !5

for.end:                                          ; preds = %for.inc, %entry
  ret void
}